target datalayout = "e-m:e-p270:32:32-p271:32:32-p272:64:64-i64:64-i128:128-f80:128-n8:16:32:64-S128"
target triple = "x86_64-pc-linux-gnu"

%struct.keytype_desc_st = type { ptr, ptr, ptr, i32, i32, ptr, ptr, ptr, ptr, ptr, ptr, ptr, ptr }
%struct.der2key_ctx_st = type { ptr, [256 x i8], ptr, i32, i8 }

@.str = private unnamed_addr constant [68 x i8] c"../openssl/providers/implementations/encode_decode/decode_der2key.c\00", align 1
@DH_dh_desc = internal constant %struct.keytype_desc_st { ptr @.str.1, ptr @ossl_dh_keymgmt_functions, ptr @.str.1, i32 28, i32 132, ptr null, ptr null, ptr @d2i_DHparams, ptr null, ptr null, ptr null, ptr @dh_adjust, ptr @DH_free }, align 8

; Function Attrs: nounwind uwtable
define internal ptr @der2key_newctx(ptr noundef %0, ptr noundef %1) #0 {
  %3 = alloca ptr, align 8
  %4 = alloca ptr, align 8
  %5 = alloca ptr, align 8
  store ptr %0, ptr %3, align 8, !tbaa !3
  store ptr %1, ptr %4, align 8, !tbaa !39
  call void @llvm.lifetime.start.p0(i64 8, ptr %5) #6
  %6 = call noalias ptr @CRYPTO_zalloc(i64 noundef 280, ptr noundef @.str, i32 noundef 141)
  store ptr %6, ptr %5, align 8, !tbaa !7
  %7 = load ptr, ptr %5, align 8, !tbaa !7
  %8 = icmp ne ptr %7, null
  br i1 %8, label %9, label %16

9:                                                ; preds = %2
  %10 = load ptr, ptr %3, align 8, !tbaa !3
  %11 = load ptr, ptr %5, align 8, !tbaa !7
  %12 = getelementptr inbounds nuw %struct.der2key_ctx_st, ptr %11, i32 0, i32 0
  store ptr %10, ptr %12, align 8, !tbaa !25
  %13 = load ptr, ptr %4, align 8, !tbaa !39
  %14 = load ptr, ptr %5, align 8, !tbaa !7
  %15 = getelementptr inbounds nuw %struct.der2key_ctx_st, ptr %14, i32 0, i32 2
  store ptr %13, ptr %15, align 8, !tbaa !21
  br label %16

16:                                               ; preds = %9, %2
  %17 = load ptr, ptr %5, align 8, !tbaa !7
  call void @llvm.lifetime.end.p0(i64 8, ptr %5) #6
  ret ptr %17
}

; Function Attrs: nounwind uwtable
define internal ptr @DH_der2dh_newctx(ptr noundef %0) #0 {
  %2 = alloca ptr, align 8
  store ptr %0, ptr %2, align 8, !tbaa !3
  %3 = load ptr, ptr %2, align 8, !tbaa !3
  %4 = call ptr @der2key_newctx(ptr noundef %3, ptr noundef @DH_dh_desc)
  ret ptr %4
}